; Function Attrs: mustprogress uwtable
define noundef ptr @utrans_openInverse_77(ptr noundef %0, ptr noundef %1) local_unnamed_addr #4 {
  %3 = icmp eq ptr %1, null
  br i1 %3, label %9, label %4

4:                                                ; preds = %2
  %5 = load i32, ptr %1, align 4, !tbaa !23
  %6 = icmp slt i32 %5, 1
  br i1 %6, label %7, label %9

7:                                                ; preds = %4
  %8 = tail call noundef ptr @_ZNK6icu_7714Transliterator13createInverseER10UErrorCode(ptr noundef nonnull align 8 dereferenceable(84) %0, ptr noundef nonnull align 4 dereferenceable(4) %1)
  br label %9

9:                                                ; preds = %2, %4, %7
  %.0 = phi ptr [ %8, %7 ], [ null, %4 ], [ null, %2 ]
  ret ptr %.0
}